00020000 A __alt_mem_ram
00020000 T __reset
00020020 A __flash_exceptions_start
00020020 A __ram_exceptions_start
00020020 T alt_exception
00020020 T alt_irq_entry
000200fc T alt_irq_handler
000201c4 T alt_instruction_exception_entry
00020224 A __ram_exceptions_end
00020224 T _start
0002025c t alt_after_alt_main
00020260 T main
000202d4 t _Z41__static_initialization_and_destruction_0ii
00020348 t _GLOBAL__sub_I_main
00020378 t _GLOBAL__sub_D_main
000203a8 W _ZN15BLADERF_DEVICES10Get_VCTCXOEP18VCTCXO_TAMER_CLASS
000203dc T _ZN15BLADERF_DEVICESC1Ev
000203dc T _ZN15BLADERF_DEVICESC2Ev
00020420 T _ZN15BLADERF_DEVICESD1Ev
00020420 T _ZN15BLADERF_DEVICESD2Ev
00020454 T _ZN15BLADERF_DEVICESD0Ev
00020490 T _ZN15BLADERF_DEVICES4InitEv
000204f4 T _ZN15BLADERF_DEVICES19Set_Clock_PrescalerEv
0002054c t _Z41__static_initialization_and_destruction_0ii
000205c0 t _GLOBAL__sub_I__ZN15BLADERF_DEVICESC2Ev
000205f0 t _GLOBAL__sub_D__ZN15BLADERF_DEVICESC2Ev
00020620 t _ZL16vctcxo_tamer_isrPv
00020734 T _ZN18VCTCXO_TAMER_CLASSC1Ev
00020734 T _ZN18VCTCXO_TAMER_CLASSC2Ev
0002079c T _ZN18VCTCXO_TAMER_CLASSD1Ev
0002079c T _ZN18VCTCXO_TAMER_CLASSD2Ev
000207d0 T _ZN18VCTCXO_TAMER_CLASSD0Ev
0002080c T _ZN18VCTCXO_TAMER_CLASS4InitEv
00020894 T _ZN18VCTCXO_TAMER_CLASS23vctcxo_tamer_enable_isrEb
00020924 T _ZN18VCTCXO_TAMER_CLASS22vctcxo_tamer_clear_isrEv
00020970 T _ZN18VCTCXO_TAMER_CLASS27vctcxo_tamer_reset_countersEb
00020a00 T _ZN18VCTCXO_TAMER_CLASS26vctcxo_tamer_set_tune_modeE25bladerf_vctcxo_tamer_mode
00020af0 T _ZN18VCTCXO_TAMER_CLASS26vctcxo_tamer_get_tune_modeEv
00020b4c T _ZN18VCTCXO_TAMER_CLASS23vctcxo_tamer_read_countEh
00020c44 T _ZN18VCTCXO_TAMER_CLASS17vctcxo_tamer_readEh
00020c84 T _ZN18VCTCXO_TAMER_CLASS18vctcxo_tamer_writeEhh
00020cd8 T _ZN18VCTCXO_TAMER_CLASS16init_trimdac_calEv
00020d34 T _ZN18VCTCXO_TAMER_CLASS11CalibrationEv
00021008 T _ZN18VCTCXO_TAMER_CLASS21vctcxo_trim_dac_writeEht
00021098 T _ZN18VCTCXO_TAMER_CLASS20vctcxo_trim_dac_readEhPt
00021150 T _ZN18VCTCXO_TAMER_CLASS28ad56x1_vctcxo_trim_dac_writeEt
000211cc T _ZN18VCTCXO_TAMER_CLASS27ad56x1_vctcxo_trim_dac_readEPt
00021204 T _ZNK10__cxxabiv117__class_type_info11__do_upcastEPKS0_PPv
0002127c T _ZNK10__cxxabiv117__class_type_info20__do_find_public_srcEiPKvPKS0_S2_
00021294 T _ZN10__cxxabiv117__class_type_infoD1Ev
00021294 T _ZN10__cxxabiv117__class_type_infoD2Ev
000212a4 T _ZN10__cxxabiv117__class_type_infoD0Ev
000212dc T _ZNK10__cxxabiv117__class_type_info12__do_dyncastEiNS0_10__sub_kindEPKS0_PKvS3_S5_RNS0_16__dyncast_resultE
000213a0 T _ZNK10__cxxabiv117__class_type_info11__do_upcastEPKS0_PKvRNS0_15__upcast_resultE
0002140c T _ZNK10__cxxabiv117__class_type_info10__do_catchEPKSt9type_infoPPvj
000214b4 T _ZdlPvj
000214b8 T _ZN10__cxxabiv120__si_class_type_infoD1Ev
000214b8 T _ZN10__cxxabiv120__si_class_type_infoD2Ev
000214c8 T _ZN10__cxxabiv120__si_class_type_infoD0Ev
00021500 T _ZNK10__cxxabiv120__si_class_type_info20__do_find_public_srcEiPKvPKNS_17__class_type_infoES2_
0002159c T _ZNK10__cxxabiv120__si_class_type_info12__do_dyncastEiNS_17__class_type_info10__sub_kindEPKS1_PKvS4_S6_RNS1_16__dyncast_resultE
000216fc T _ZNK10__cxxabiv120__si_class_type_info11__do_upcastEPKNS_17__class_type_infoEPKvRNS1_15__upcast_resultE
00021780 T _ZNSt9type_infoD1Ev
00021780 T _ZNSt9type_infoD2Ev
00021784 T _ZNKSt9type_info14__is_pointer_pEv
00021784 T _ZNKSt9type_info15__is_function_pEv
0002178c T _ZNKSt9type_info11__do_upcastEPKN10__cxxabiv117__class_type_infoEPPv
00021794 T _ZNSt9type_infoD0Ev
0002179c T _ZNKSt9type_info10__do_catchEPKS_PPvj
000217e0 T _ZdlPv
000217e4 T __divsi3
00021864 T __modsi3
000218d8 T __udivsi3
0002193c T __umodsi3
00021998 T __mulsi3
000219c0 T malloc
000219d0 T free
000219e0 T _malloc_r
000221c0 T _puts_r
0002228c T puts
0002229c T _sbrk_r
000222f4 T strcmp
000223ac T strlen
00022444 t __fp_lock
0002244c T _cleanup_r
00022458 t __sinit.part.0
000225c0 t __fp_unlock
000225c8 T __sfmoreglue
00022640 T __sfp
0002273c T _cleanup
00022750 T __sinit
00022760 T __sfp_lock_acquire
00022764 T __sfp_lock_release
00022768 T __sinit_lock_acquire
0002276c T __sinit_lock_release
00022770 T __fp_lock_all
00022784 T __fp_unlock_all
00022798 T _malloc_trim_r
000228b4 T _free_r
00022bb0 T __sfvwrite_r
0002307c T _fwalk
00023114 T _fwalk_reent
000231bc T memchr
00023290 T memcpy
00023390 T memmove
000234bc T memset
000235ac T _realloc_r
00023b10 T __sread
00023b64 T __seofread
00023b6c T __swrite
00023bec T __sseek
00023c48 T __sclose
00023c50 T _write_r
00023cb4 T __swsetup_r
00023e10 T _close_r
00023e68 T _fclose_r
00023f60 T fclose
00023f70 T __sflush_r
00024198 T _fflush_r
000241f8 T fflush
00024220 T _lseek_r
00024284 T __swhatbuf_r
0002431c T __smakebuf_r
0002445c T _read_r
000244c0 T _fstat_r
00024520 T _isatty_r
00024578 t alt_get_errno
000245b4 T close
00024690 t alt_dev_null_write
000246bc t alt_get_errno
000246f8 T fstat
000247b4 T alt_ic_isr_register
00024804 T alt_ic_irq_enable
0002488c T alt_ic_irq_disable
00024918 T alt_ic_irq_enabled
00024964 T alt_iic_isr_register
00024a4c t alt_get_errno
00024a88 T isatty
00024b38 t alt_load_section
00024ba0 T alt_load
00024c24 t alt_get_errno
00024c60 T lseek
00024d40 T alt_main
00024dbc T __malloc_lock
00024de0 T __malloc_unlock
00024e04 t alt_get_errno
00024e40 T read
00024f48 T alt_release_fd
00024fb8 T sbrk
00025070 T usleep
000250a0 t alt_get_errno
000250dc T write
000251e0 t alt_dev_reg
00025214 T alt_irq_init
00025250 T alt_sys_init
0002529c T altera_avalon_jtag_uart_read_fd
000252fc T altera_avalon_jtag_uart_write_fd
0002535c T altera_avalon_jtag_uart_close_fd
000253ac T altera_avalon_jtag_uart_ioctl_fd
00025400 T altera_avalon_jtag_uart_init
000254c0 t altera_avalon_jtag_uart_irq
000256cc t altera_avalon_jtag_uart_timeout
0002576c T altera_avalon_jtag_uart_close
000257d4 T altera_avalon_jtag_uart_ioctl
000258c8 T altera_avalon_jtag_uart_read
00025ae8 T altera_avalon_jtag_uart_write
00025d10 T alt_avalon_spi_command
00025f0c T alt_alarm_start
00026040 T alt_busy_sleep
00026198 T alt_dcache_flush_all
000261b8 t alt_get_errno
000261f4 T alt_dev_llist_insert
0002629c T _do_ctors
00026300 T _do_dtors
00026364 T alt_icache_flush_all
00026384 T alt_exception_cause_generated_bad_addr
0002641c t alt_open_fd
000264f0 T alt_io_redirect
0002656c t alt_get_errno
000265a8 t alt_file_locked
00026684 T open
000267e4 T alt_alarm_stop
00026888 T alt_tick
00026990 T altera_nios2_gen2_irq_init
000269b4 T alt_find_dev
00026a44 T alt_find_file
00026b4c T alt_get_fd
00026c04 T atexit
00026c18 T exit
00026c4c T memcmp
00026cc4 T __register_exitproc
00026d54 T __call_exitprocs
00026e74 T _exit
00026eac A __CTOR_LIST__
00026eb4 A __CTOR_END__
00026eb4 A __DTOR_LIST__
00026ebc A __DTOR_END__
00026ebc A __flash_rodata_start
00026ebc A __ram_rodata_start
00026ee4 V _ZTV15BLADERF_DEVICES
00026ef4 V _ZTS15BLADERF_DEVICES
00026f08 V _ZTV18VCTCXO_TAMER_CLASS
00026f18 V _ZTS18VCTCXO_TAMER_CLASS
00026f30 V _ZTSN10__cxxabiv117__class_type_infoE
00026f54 V _ZTIN10__cxxabiv117__class_type_infoE
00026f60 V _ZTVN10__cxxabiv117__class_type_infoE
00026f8c V _ZTSN10__cxxabiv120__si_class_type_infoE
00026fb4 V _ZTIN10__cxxabiv120__si_class_type_infoE
00026fc0 V _ZTVN10__cxxabiv120__si_class_type_infoE
00026fec V _ZTSSt9type_info
00026ffc V _ZTVSt9type_info
0002704c G __malloc_av_
0002704c A __ram_rodata_end
0002704c A __ram_rwdata_start
00027454 g impure_data
00027878 G alt_dev_null
000278a0 G alt_fd_list
00027a20 g jtag_uart
00028a80 V _ZTI15BLADERF_DEVICES
00028a88 g _ZL11trimdac_min
00028a8a g _ZL11trimdac_max
00028a8c V _ZTI18VCTCXO_TAMER_CLASS
00028a94 V _ZTISt9type_info
00028a9c G __malloc_sbrk_base
00028aa0 G __malloc_trim_threshold
00028aa4 G _global_impure_ptr
00028aa8 G _impure_ptr
00028aac G alt_fs_list
00028ab4 G alt_dev_list
00028abc G alt_max_fd
00028ac0 G alt_errno
00028ac4 G alt_priority_mask
00028ac8 g heap_end
00028acc G alt_alarm_list
00028ad4 A __flash_rwdata_start
00028ad4 A __ram_rwdata_end
00028ad4 A _edata
0002a55c A __bss_start
0002a55c B ptr_v_tamer
0002a560 B __malloc_max_total_mem
0002a564 B __malloc_max_sbrked_mem
0002a568 B __malloc_top_pad
0002a56c B errno
0002a570 B alt_irq_active
0002a574 B alt_argc
0002a578 B alt_argv
0002a57c B alt_envp
0002a580 B alt_instruction_exception_handler
0002a584 B _alt_tick_rate
0002a588 B _alt_nticks
0002a58c b _ZL5blade
0002a59c b _ZL18local_vctcxo_tamer
0002a5c4 b _ZL22vctcxo_tamer_pkt_local
0002a5e0 B __malloc_current_mallinfo
0002a608 B alt_irq
0002a708 A __alt_heap_start
0002a708 A __alt_stack_base
0002a708 A __bss_end
0002a708 A _end
0002a708 A end
00030a80 A _gp
00040000 A __alt_data_end
00040000 A __alt_heap_limit
00040000 A __alt_stack_pointer
00041100 A __alt_mem_vctcxo_tamer
